target datalayout = "e-m:e-p270:32:32-p271:32:32-p272:64:64-i64:64-i128:128-f80:128-n8:16:32:64-S128"
target triple = "x86_64-pc-linux-gnu"

%struct.edata_s = type { i64, ptr, %union.anon.11, ptr, i64, %union.anon.12, %union.anon.15 }
%union.anon.11 = type { i64 }
%union.anon.12 = type { %union.anon.14 }
%union.anon.14 = type { %struct.edata_heap_link_t }
%struct.edata_heap_link_t = type { %struct.phn_link_s }
%struct.phn_link_s = type { ptr, ptr, ptr }
%union.anon.15 = type { %struct.slab_data_s }
%struct.slab_data_s = type { [8 x i64] }

@duckdb_je_sz_index2size_tab = external global [232 x i64], align 16

; Function Attrs: alwaysinline nounwind uwtable
define internal i64 @sz_index2size_lookup_impl(i32 noundef %0) #4 {
  %2 = alloca i32, align 4
  store i32 %0, ptr %2, align 4, !tbaa !16
  %3 = load i32, ptr %2, align 4, !tbaa !16
  %4 = zext i32 %3 to i64
  %5 = getelementptr inbounds nuw [232 x i64], ptr @duckdb_je_sz_index2size_tab, i64 0, i64 %4
  %6 = load i64, ptr %5, align 8, !tbaa !20
  ret i64 %6
}

; Function Attrs: alwaysinline nounwind uwtable
define internal i64 @sz_index2size_lookup(i32 noundef %0) #4 {
  %2 = alloca i32, align 4
  %3 = alloca i64, align 8
  store i32 %0, ptr %2, align 4, !tbaa !16
  call void @llvm.lifetime.start.p0(i64 8, ptr %3) #12
  %4 = load i32, ptr %2, align 4, !tbaa !16
  %5 = call i64 @sz_index2size_lookup_impl(i32 noundef %4)
  store i64 %5, ptr %3, align 8, !tbaa !20
  br label %6

6:                                                ; preds = %1
  br label %7

7:                                                ; preds = %6
  br label %8

8:                                                ; preds = %7
  %9 = load i64, ptr %3, align 8, !tbaa !20
  call void @llvm.lifetime.end.p0(i64 8, ptr %3) #12
  ret i64 %9
}

; Function Attrs: inlinehint nounwind uwtable
define internal i32 @edata_szind_get_maybe_invalid(ptr noundef %0) #3 {
  %2 = alloca ptr, align 8
  %3 = alloca i32, align 4
  store ptr %0, ptr %2, align 8, !tbaa !174
  call void @llvm.lifetime.start.p0(i64 4, ptr %3) #12
  %4 = load ptr, ptr %2, align 8, !tbaa !174
  %5 = getelementptr inbounds nuw %struct.edata_s, ptr %4, i32 0, i32 0
  %6 = load i64, ptr %5, align 8, !tbaa !179
  %7 = and i64 %6, 267386880
  %8 = lshr i64 %7, 20
  %9 = trunc i64 %8 to i32
  store i32 %9, ptr %3, align 4, !tbaa !16
  br label %10

10:                                               ; preds = %1
  br label %11

11:                                               ; preds = %10
  br label %12

12:                                               ; preds = %11
  %13 = load i32, ptr %3, align 4, !tbaa !16
  call void @llvm.lifetime.end.p0(i64 4, ptr %3) #12
  ret i32 %13
}

; Function Attrs: alwaysinline nounwind uwtable
define internal i64 @sz_index2size(i32 noundef %0) #4 {
  %2 = alloca i32, align 4
  store i32 %0, ptr %2, align 4, !tbaa !16
  br label %3

3:                                                ; preds = %1
  br label %4

4:                                                ; preds = %3
  %5 = load i32, ptr %2, align 4, !tbaa !16
  %6 = call i64 @sz_index2size_lookup(i32 noundef %5)
  ret i64 %6
}

; Function Attrs: inlinehint nounwind uwtable
define internal i32 @edata_szind_get(ptr noundef %0) #3 {
  %2 = alloca ptr, align 8
  %3 = alloca i32, align 4
  store ptr %0, ptr %2, align 8, !tbaa !174
  call void @llvm.lifetime.start.p0(i64 4, ptr %3) #12
  %4 = load ptr, ptr %2, align 8, !tbaa !174
  %5 = call i32 @edata_szind_get_maybe_invalid(ptr noundef %4)
  store i32 %5, ptr %3, align 4, !tbaa !16
  br label %6

6:                                                ; preds = %1
  br label %7

7:                                                ; preds = %6
  br label %8

8:                                                ; preds = %7
  %9 = load i32, ptr %3, align 4, !tbaa !16
  call void @llvm.lifetime.end.p0(i64 4, ptr %3) #12
  ret i32 %9
}

; Function Attrs: nounwind uwtable
define internal void @arena_large_ralloc_stats_update(ptr noundef %0, ptr noundef %1, i64 noundef %2, i64 noundef %3) #0 {
  %5 = alloca ptr, align 8
  %6 = alloca ptr, align 8
  %7 = alloca i64, align 8
  %8 = alloca i64, align 8
  store ptr %0, ptr %5, align 8, !tbaa !3
  store ptr %1, ptr %6, align 8, !tbaa !8
  store i64 %2, ptr %7, align 8, !tbaa !20
  store i64 %3, ptr %8, align 8, !tbaa !20
  %9 = load ptr, ptr %5, align 8, !tbaa !3
  %10 = load ptr, ptr %6, align 8, !tbaa !8
  %11 = load i64, ptr %8, align 8, !tbaa !20
  call void @arena_large_malloc_stats_update(ptr noundef %9, ptr noundef %10, i64 noundef %11)
  %12 = load ptr, ptr %5, align 8, !tbaa !3
  %13 = load ptr, ptr %6, align 8, !tbaa !8
  %14 = load i64, ptr %7, align 8, !tbaa !20
  call void @arena_large_dalloc_stats_update(ptr noundef %12, ptr noundef %13, i64 noundef %14)
  ret void
}

; Function Attrs: inlinehint nounwind uwtable
define internal i64 @edata_usize_get(ptr noundef %0) #3 {
  %2 = alloca ptr, align 8
  store ptr %0, ptr %2, align 8, !tbaa !174
  %3 = load ptr, ptr %2, align 8, !tbaa !174
  %4 = call i32 @edata_szind_get(ptr noundef %3)
  %5 = call i64 @sz_index2size(i32 noundef %4)
  ret i64 %5
}

; Function Attrs: nounwind uwtable
define void @duckdb_je_arena_extent_ralloc_large_shrink(ptr noundef %0, ptr noundef %1, ptr noundef %2, i64 noundef %3) #0 {
  %5 = alloca ptr, align 8
  %6 = alloca ptr, align 8
  %7 = alloca ptr, align 8
  %8 = alloca i64, align 8
  %9 = alloca i64, align 8
  store ptr %0, ptr %5, align 8, !tbaa !3
  store ptr %1, ptr %6, align 8, !tbaa !8
  store ptr %2, ptr %7, align 8, !tbaa !174
  store i64 %3, ptr %8, align 8, !tbaa !20
  call void @llvm.lifetime.start.p0(i64 8, ptr %9) #12
  %10 = load ptr, ptr %7, align 8, !tbaa !174
  %11 = call i64 @edata_usize_get(ptr noundef %10)
  store i64 %11, ptr %9, align 8, !tbaa !20
  %12 = load ptr, ptr %5, align 8, !tbaa !3
  %13 = load ptr, ptr %6, align 8, !tbaa !8
  %14 = load i64, ptr %8, align 8, !tbaa !20
  %15 = load i64, ptr %9, align 8, !tbaa !20
  call void @arena_large_ralloc_stats_update(ptr noundef %12, ptr noundef %13, i64 noundef %14, i64 noundef %15)
  call void @llvm.lifetime.end.p0(i64 8, ptr %9) #12
  ret void
}