; Function Attrs: nounwind uwtable
define void @duckdb_je_arena_extent_ralloc_large_shrink(ptr noundef %0, ptr noundef %1, ptr noundef readonly captures(none) %2, i64 noundef %3) local_unnamed_addr #0 {
  %.val = load i64, ptr %2, align 8, !tbaa !147
  %5 = lshr i64 %.val, 20
  %6 = and i64 %5, 255
  %7 = getelementptr inbounds nuw [232 x i64], ptr @duckdb_je_sz_index2size_tab, i64 0, i64 %6
  %8 = load i64, ptr %7, align 8, !tbaa !10
  tail call fastcc void @arena_large_malloc_stats_update(ptr noundef %0, ptr noundef %1, i64 noundef %8)
  tail call fastcc void @arena_large_dalloc_stats_update(ptr noundef %0, ptr noundef %1, i64 noundef %3)
  ret void
}